; Function Attrs: mustprogress nofree norecurse nosync nounwind willreturn memory(read, inaccessiblemem: none) uwtable
define noundef zeroext i1 @_Z30haveFepPerturbedNBInteractionsRK10gmx_mtop_t(ptr noundef nonnull readonly align 8 captures(none) dereferenceable(768) %0) local_unnamed_addr #2 {
  %2 = getelementptr inbounds nuw i8, ptr %0, i64 112
  %3 = load ptr, ptr %2, align 8, !tbaa !267
  %4 = getelementptr inbounds nuw i8, ptr %0, i64 120
  %5 = load ptr, ptr %4, align 8, !tbaa !267
  %.not1926.not = icmp eq ptr %3, %5
  br i1 %.not1926.not, label %.thread, label %.preheader

.preheader:                                       ; preds = %1, %._crit_edge
  %.sroa.015.027 = phi ptr [ %27, %._crit_edge ], [ %3, %1 ]
  %6 = getelementptr inbounds nuw i8, ptr %.sroa.015.027, i64 8
  %7 = load i32, ptr %6, align 8, !tbaa !132
  %.not24 = icmp sgt i32 %7, 0
  br i1 %.not24, label %.lr.ph, label %._crit_edge

.lr.ph:                                           ; preds = %.preheader
  %8 = getelementptr inbounds nuw i8, ptr %.sroa.015.027, i64 16
  %9 = load ptr, ptr %8, align 8, !tbaa !167
  %wide.trip.count = zext nneg i32 %7 to i64
  br label %11

10:                                               ; preds = %_Z9PERTURBEDRK6t_atom.exit
  %indvars.iv.next = add nuw nsw i64 %indvars.iv, 1
  %exitcond.not = icmp eq i64 %indvars.iv.next, %wide.trip.count
  br i1 %exitcond.not, label %._crit_edge, label %11, !llvm.loop !286

11:                                               ; preds = %.lr.ph, %10
  %indvars.iv = phi i64 [ 0, %.lr.ph ], [ %indvars.iv.next, %10 ]
  %12 = getelementptr inbounds nuw %struct.t_atom, ptr %9, i64 %indvars.iv
  %13 = getelementptr inbounds nuw i8, ptr %12, i64 8
  %14 = load float, ptr %13, align 4, !tbaa !287
  %15 = load float, ptr %12, align 4, !tbaa !288
  %16 = fcmp une float %14, %15
  br i1 %16, label %.thread, label %17

17:                                               ; preds = %11
  %18 = getelementptr inbounds nuw i8, ptr %12, i64 12
  %19 = load float, ptr %18, align 4, !tbaa !169
  %20 = getelementptr inbounds nuw i8, ptr %12, i64 4
  %21 = load float, ptr %20, align 4, !tbaa !170
  %22 = fcmp une float %19, %21
  br i1 %22, label %.thread, label %_Z9PERTURBEDRK6t_atom.exit

_Z9PERTURBEDRK6t_atom.exit:                       ; preds = %17
  %23 = getelementptr inbounds nuw i8, ptr %12, i64 18
  %24 = load i16, ptr %23, align 2, !tbaa !289
  %25 = getelementptr inbounds nuw i8, ptr %12, i64 16
  %26 = load i16, ptr %25, align 4, !tbaa !290
  %.not20 = icmp eq i16 %24, %26
  br i1 %.not20, label %10, label %.thread

._crit_edge:                                      ; preds = %10, %.preheader
  %27 = getelementptr inbounds nuw i8, ptr %.sroa.015.027, i64 2408
  %.not19.not = icmp eq ptr %27, %5
  br i1 %.not19.not, label %.thread, label %.preheader

.thread:                                          ; preds = %._crit_edge, %11, %17, %_Z9PERTURBEDRK6t_atom.exit, %1
  %.not1923 = phi i1 [ false, %1 ], [ true, %_Z9PERTURBEDRK6t_atom.exit ], [ true, %17 ], [ true, %11 ], [ false, %._crit_edge ]
  ret i1 %.not1923
}